target datalayout = "e-m:e-p270:32:32-p271:32:32-p272:64:64-i64:64-i128:128-f80:128-n8:16:32:64-S128"
target triple = "x86_64-pc-linux-gnu"

%struct.AVBSFContext = type { ptr, ptr, ptr, ptr, ptr, %struct.AVRational, %struct.AVRational }
%struct.AVRational = type { i32, i32 }
%struct.VP9BSFContext = type { i32, [8 x ptr] }

; Function Attrs: nounwind uwtable
define internal void @vp9_superframe_close(ptr noundef %0) #0 {
  %2 = alloca ptr, align 8
  %3 = alloca ptr, align 8
  %4 = alloca i32, align 4
  store ptr %0, ptr %2, align 8, !tbaa !4
  call void @llvm.lifetime.start.p0(i64 8, ptr %3) #7
  %5 = load ptr, ptr %2, align 8, !tbaa !4
  %6 = getelementptr inbounds nuw %struct.AVBSFContext, ptr %5, i32 0, i32 2
  %7 = load ptr, ptr %6, align 8, !tbaa !9
  store ptr %7, ptr %3, align 8, !tbaa !16
  call void @llvm.lifetime.start.p0(i64 4, ptr %4) #7
  store i32 0, ptr %4, align 4, !tbaa !18
  br label %8

8:                                                ; preds = %17, %1
  %9 = load i32, ptr %4, align 4, !tbaa !18
  %10 = icmp slt i32 %9, 8
  br i1 %10, label %11, label %20

11:                                               ; preds = %8
  %12 = load ptr, ptr %3, align 8, !tbaa !16
  %13 = getelementptr inbounds nuw %struct.VP9BSFContext, ptr %12, i32 0, i32 1
  %14 = load i32, ptr %4, align 4, !tbaa !18
  %15 = sext i32 %14 to i64
  %16 = getelementptr inbounds [8 x ptr], ptr %13, i64 0, i64 %15
  call void @av_packet_free(ptr noundef %16)
  br label %17

17:                                               ; preds = %11
  %18 = load i32, ptr %4, align 4, !tbaa !18
  %19 = add nsw i32 %18, 1
  store i32 %19, ptr %4, align 4, !tbaa !18
  br label %8, !llvm.loop !34

20:                                               ; preds = %8
  call void @llvm.lifetime.end.p0(i64 4, ptr %4) #7
  call void @llvm.lifetime.end.p0(i64 8, ptr %3) #7
  ret void
}